target datalayout = "e-m:e-p270:32:32-p271:32:32-p272:64:64-i64:64-i128:128-f80:128-n8:16:32:64-S128"
target triple = "x86_64-unknown-linux-gnu"

%"struct.std::pair.9" = type <{ ptr, i32, [4 x i8] }>
%"class.google::protobuf::internal::EpsCopyInputStream" = type { ptr, ptr, ptr, i32, i32, ptr, [32 x i8], i64, i32, i32 }

; Function Attrs: mustprogress uwtable
define linkonce_odr hidden void @_ZN4absl12lts_2023080216strings_internal25ResizeUninitializedTraitsINSt7__cxx1112basic_stringIcSt11char_traitsIcESaIcEEEvE6ResizeEPS8_m(ptr noundef %s, i64 noundef %new_size) #4 comdat align 2 {
entry:
  %s.addr = alloca ptr, align 8
  %new_size.addr = alloca i64, align 8
  store ptr %s, ptr %s.addr, align 8
  store i64 %new_size, ptr %new_size.addr, align 8
  %0 = load ptr, ptr %s.addr, align 8
  %1 = load i64, ptr %new_size.addr, align 8
  call void @_ZNSt7__cxx1112basic_stringIcSt11char_traitsIcESaIcEE6resizeEm(ptr noundef nonnull align 8 dereferenceable(32) %0, i64 noundef %1)
  ret void
}

; Function Attrs: mustprogress nounwind uwtable
define linkonce_odr hidden void @_ZNSt4pairIPKciEC2IDniTnNSt9enable_ifIXaaclsr5_PCCPE22_MoveConstructiblePairIT_T0_EEclsr5_PCCPE30_ImplicitlyMoveConvertiblePairIS5_S6_EEEbE4typeELb1EEEOS5_OS6_(ptr noundef nonnull align 8 dereferenceable(12) %this, ptr noundef nonnull align 8 dereferenceable(8) %__x, ptr noundef nonnull align 4 dereferenceable(4) %__y) unnamed_addr #5 comdat align 2 {
entry:
  %this.addr = alloca ptr, align 8
  %__x.addr = alloca ptr, align 8
  %__y.addr = alloca ptr, align 8
  store ptr %this, ptr %this.addr, align 8
  store ptr %__x, ptr %__x.addr, align 8
  store ptr %__y, ptr %__y.addr, align 8
  %this1 = load ptr, ptr %this.addr, align 8
  %first = getelementptr inbounds %"struct.std::pair.9", ptr %this1, i32 0, i32 0
  store ptr null, ptr %first, align 8
  %second = getelementptr inbounds %"struct.std::pair.9", ptr %this1, i32 0, i32 1
  %0 = load ptr, ptr %__y.addr, align 8
  %1 = load i32, ptr %0, align 4
  store i32 %1, ptr %second, align 8
  ret void
}

; Function Attrs: mustprogress nounwind uwtable
define linkonce_odr hidden void @_ZNSt4pairIPKciEC2IS1_RjTnNSt9enable_ifIXaaclsr5_PCCPE22_MoveConstructiblePairIT_T0_EEclsr5_PCCPE30_ImplicitlyMoveConvertiblePairIS6_S7_EEEbE4typeELb1EEEOS6_OS7_(ptr noundef nonnull align 8 dereferenceable(12) %this, ptr noundef nonnull align 8 dereferenceable(8) %__x, ptr noundef nonnull align 4 dereferenceable(4) %__y) unnamed_addr #5 comdat align 2 {
entry:
  %this.addr = alloca ptr, align 8
  %__x.addr = alloca ptr, align 8
  %__y.addr = alloca ptr, align 8
  store ptr %this, ptr %this.addr, align 8
  store ptr %__x, ptr %__x.addr, align 8
  store ptr %__y, ptr %__y.addr, align 8
  %this1 = load ptr, ptr %this.addr, align 8
  %first = getelementptr inbounds %"struct.std::pair.9", ptr %this1, i32 0, i32 0
  %0 = load ptr, ptr %__x.addr, align 8
  %1 = load ptr, ptr %0, align 8
  store ptr %1, ptr %first, align 8
  %second = getelementptr inbounds %"struct.std::pair.9", ptr %this1, i32 0, i32 1
  %2 = load ptr, ptr %__y.addr, align 8
  %3 = load i32, ptr %2, align 4
  store i32 %3, ptr %second, align 8
  ret void
}

; Function Attrs: mustprogress uwtable
define linkonce_odr hidden void @_ZN4absl12lts_2023080216strings_internal28STLStringResizeUninitializedINSt7__cxx1112basic_stringIcSt11char_traitsIcESaIcEEEvEEvPT_m(ptr noundef %s, i64 noundef %new_size) #4 comdat {
entry:
  %s.addr = alloca ptr, align 8
  %new_size.addr = alloca i64, align 8
  store ptr %s, ptr %s.addr, align 8
  store i64 %new_size, ptr %new_size.addr, align 8
  %0 = load ptr, ptr %s.addr, align 8
  %1 = load i64, ptr %new_size.addr, align 8
  call void @_ZN4absl12lts_2023080216strings_internal25ResizeUninitializedTraitsINSt7__cxx1112basic_stringIcSt11char_traitsIcESaIcEEEvE6ResizeEPS8_m(ptr noundef %0, i64 noundef %1)
  ret void
}

; Function Attrs: mustprogress uwtable
define { ptr, i32 } @_ZN6google8protobuf8internal16ReadSizeFallbackEPKcj(ptr noundef %p, i32 noundef %res) #4 {
entry:
  %retval = alloca %"struct.std::pair.9", align 8
  %p.addr = alloca ptr, align 8
  %res.addr = alloca i32, align 4
  %i = alloca i32, align 4
  %byte = alloca i32, align 4
  %ref.tmp = alloca ptr, align 8
  %byte4 = alloca i32, align 4
  %ref.tmp10 = alloca ptr, align 8
  %ref.tmp11 = alloca i32, align 4
  %ref.tmp19 = alloca ptr, align 8
  %ref.tmp20 = alloca i32, align 4
  %ref.tmp22 = alloca ptr, align 8
  store ptr %p, ptr %p.addr, align 8
  store i32 %res, ptr %res.addr, align 4
  store i32 1, ptr %i, align 4
  br label %for.cond

for.cond:                                         ; preds = %for.inc, %entry
  %0 = load i32, ptr %i, align 4
  %cmp = icmp ult i32 %0, 4
  br i1 %cmp, label %for.body, label %for.end

for.body:                                         ; preds = %for.cond
  %1 = load ptr, ptr %p.addr, align 8
  %2 = load i32, ptr %i, align 4
  %idxprom = zext i32 %2 to i64
  %arrayidx = getelementptr inbounds i8, ptr %1, i64 %idxprom
  %3 = load i8, ptr %arrayidx, align 1
  %conv = zext i8 %3 to i32
  store i32 %conv, ptr %byte, align 4
  %4 = load i32, ptr %byte, align 4
  %sub = sub i32 %4, 1
  %5 = load i32, ptr %i, align 4
  %mul = mul i32 7, %5
  %shl = shl i32 %sub, %mul
  %6 = load i32, ptr %res.addr, align 4
  %add = add i32 %6, %shl
  store i32 %add, ptr %res.addr, align 4
  %7 = load i32, ptr %byte, align 4
  %cmp1 = icmp ult i32 %7, 128
  br i1 %cmp1, label %if.then, label %if.end

if.then:                                          ; preds = %for.body
  %8 = load ptr, ptr %p.addr, align 8
  %9 = load i32, ptr %i, align 4
  %idx.ext = zext i32 %9 to i64
  %add.ptr = getelementptr inbounds i8, ptr %8, i64 %idx.ext
  %add.ptr3 = getelementptr inbounds i8, ptr %add.ptr, i64 1
  store ptr %add.ptr3, ptr %ref.tmp, align 8
  call void @_ZNSt4pairIPKciEC2IS1_RjTnNSt9enable_ifIXaaclsr5_PCCPE22_MoveConstructiblePairIT_T0_EEclsr5_PCCPE30_ImplicitlyMoveConvertiblePairIS6_S7_EEEbE4typeELb1EEEOS6_OS7_(ptr noundef nonnull align 8 dereferenceable(12) %retval, ptr noundef nonnull align 8 dereferenceable(8) %ref.tmp, ptr noundef nonnull align 4 dereferenceable(4) %res.addr)
  br label %return

if.end:                                           ; preds = %for.body
  br label %for.inc

for.inc:                                          ; preds = %if.end
  %10 = load i32, ptr %i, align 4
  %inc = add i32 %10, 1
  store i32 %inc, ptr %i, align 4
  br label %for.cond, !llvm.loop !24

for.end:                                          ; preds = %for.cond
  %11 = load ptr, ptr %p.addr, align 8
  %arrayidx5 = getelementptr inbounds i8, ptr %11, i64 4
  %12 = load i8, ptr %arrayidx5, align 1
  %conv6 = zext i8 %12 to i32
  store i32 %conv6, ptr %byte4, align 4
  %13 = load i32, ptr %byte4, align 4
  %cmp7 = icmp uge i32 %13, 8
  br i1 %cmp7, label %if.then9, label %if.end12

if.then9:                                         ; preds = %for.end
  store ptr null, ptr %ref.tmp10, align 8
  store i32 0, ptr %ref.tmp11, align 4
  call void @_ZNSt4pairIPKciEC2IDniTnNSt9enable_ifIXaaclsr5_PCCPE22_MoveConstructiblePairIT_T0_EEclsr5_PCCPE30_ImplicitlyMoveConvertiblePairIS5_S6_EEEbE4typeELb1EEEOS5_OS6_(ptr noundef nonnull align 8 dereferenceable(12) %retval, ptr noundef nonnull align 8 dereferenceable(8) %ref.tmp10, ptr noundef nonnull align 4 dereferenceable(4) %ref.tmp11)
  br label %return

if.end12:                                         ; preds = %for.end
  %14 = load i32, ptr %byte4, align 4
  %sub13 = sub i32 %14, 1
  %shl14 = shl i32 %sub13, 28
  %15 = load i32, ptr %res.addr, align 4
  %add15 = add i32 %15, %shl14
  store i32 %add15, ptr %res.addr, align 4
  %16 = load i32, ptr %res.addr, align 4
  %cmp16 = icmp ugt i32 %16, 2147483631
  br i1 %cmp16, label %if.then18, label %if.end21

if.then18:                                        ; preds = %if.end12
  store ptr null, ptr %ref.tmp19, align 8
  store i32 0, ptr %ref.tmp20, align 4
  call void @_ZNSt4pairIPKciEC2IDniTnNSt9enable_ifIXaaclsr5_PCCPE22_MoveConstructiblePairIT_T0_EEclsr5_PCCPE30_ImplicitlyMoveConvertiblePairIS5_S6_EEEbE4typeELb1EEEOS5_OS6_(ptr noundef nonnull align 8 dereferenceable(12) %retval, ptr noundef nonnull align 8 dereferenceable(8) %ref.tmp19, ptr noundef nonnull align 4 dereferenceable(4) %ref.tmp20)
  br label %return

if.end21:                                         ; preds = %if.end12
  %17 = load ptr, ptr %p.addr, align 8
  %add.ptr23 = getelementptr inbounds i8, ptr %17, i64 5
  store ptr %add.ptr23, ptr %ref.tmp22, align 8
  call void @_ZNSt4pairIPKciEC2IS1_RjTnNSt9enable_ifIXaaclsr5_PCCPE22_MoveConstructiblePairIT_T0_EEclsr5_PCCPE30_ImplicitlyMoveConvertiblePairIS6_S7_EEEbE4typeELb1EEEOS6_OS7_(ptr noundef nonnull align 8 dereferenceable(12) %retval, ptr noundef nonnull align 8 dereferenceable(8) %ref.tmp22, ptr noundef nonnull align 4 dereferenceable(4) %res.addr)
  br label %return

return:                                           ; preds = %if.end21, %if.then18, %if.then9, %if.then
  %18 = load { ptr, i32 }, ptr %retval, align 8
  ret { ptr, i32 } %18
}

; Function Attrs: mustprogress uwtable
define linkonce_odr hidden noundef ptr @_ZN6google8protobuf8internal18EpsCopyInputStream10ReadStringEPKciPNSt7__cxx1112basic_stringIcSt11char_traitsIcESaIcEEE(ptr noundef nonnull align 8 dereferenceable(88) %this, ptr noundef %ptr, i32 noundef %size, ptr noundef %s) #4 comdat align 2 {
entry:
  %retval = alloca ptr, align 8
  %this.addr = alloca ptr, align 8
  %ptr.addr = alloca ptr, align 8
  %size.addr = alloca i32, align 4
  %s.addr = alloca ptr, align 8
  %z = alloca ptr, align 8
  store ptr %this, ptr %this.addr, align 8
  store ptr %ptr, ptr %ptr.addr, align 8
  store i32 %size, ptr %size.addr, align 4
  store ptr %s, ptr %s.addr, align 8
  %this1 = load ptr, ptr %this.addr, align 8
  %0 = load i32, ptr %size.addr, align 4
  %conv = sext i32 %0 to i64
  %buffer_end_ = getelementptr inbounds %"class.google::protobuf::internal::EpsCopyInputStream", ptr %this1, i32 0, i32 1
  %1 = load ptr, ptr %buffer_end_, align 8
  %add.ptr = getelementptr inbounds i8, ptr %1, i64 16
  %2 = load ptr, ptr %ptr.addr, align 8
  %sub.ptr.lhs.cast = ptrtoint ptr %add.ptr to i64
  %sub.ptr.rhs.cast = ptrtoint ptr %2 to i64
  %sub.ptr.sub = sub i64 %sub.ptr.lhs.cast, %sub.ptr.rhs.cast
  %cmp = icmp sle i64 %conv, %sub.ptr.sub
  br i1 %cmp, label %if.then, label %if.end

if.then:                                          ; preds = %entry
  %3 = load ptr, ptr %s.addr, align 8
  %4 = load i32, ptr %size.addr, align 4
  %conv2 = sext i32 %4 to i64
  call void @_ZN4absl12lts_2023080216strings_internal28STLStringResizeUninitializedINSt7__cxx1112basic_stringIcSt11char_traitsIcESaIcEEEvEEvPT_m(ptr noundef %3, i64 noundef %conv2)
  %5 = load ptr, ptr %s.addr, align 8
  %call = call noundef nonnull align 1 dereferenceable(1) ptr @_ZNSt7__cxx1112basic_stringIcSt11char_traitsIcESaIcEEixEm(ptr noundef nonnull align 8 dereferenceable(32) %5, i64 noundef 0)
  store ptr %call, ptr %z, align 8
  %6 = load ptr, ptr %z, align 8
  %7 = load ptr, ptr %ptr.addr, align 8
  %8 = load i32, ptr %size.addr, align 4
  %conv3 = sext i32 %8 to i64
  call void @llvm.memcpy.p0.p0.i64(ptr align 1 %6, ptr align 1 %7, i64 %conv3, i1 false)
  %9 = load ptr, ptr %ptr.addr, align 8
  %10 = load i32, ptr %size.addr, align 4
  %idx.ext = sext i32 %10 to i64
  %add.ptr4 = getelementptr inbounds i8, ptr %9, i64 %idx.ext
  store ptr %add.ptr4, ptr %retval, align 8
  br label %return

if.end:                                           ; preds = %entry
  %11 = load ptr, ptr %ptr.addr, align 8
  %12 = load i32, ptr %size.addr, align 4
  %13 = load ptr, ptr %s.addr, align 8
  %call5 = call noundef ptr @_ZN6google8protobuf8internal18EpsCopyInputStream18ReadStringFallbackEPKciPNSt7__cxx1112basic_stringIcSt11char_traitsIcESaIcEEE(ptr noundef nonnull align 8 dereferenceable(88) %this1, ptr noundef %11, i32 noundef %12, ptr noundef %13)
  store ptr %call5, ptr %retval, align 8
  br label %return

return:                                           ; preds = %if.end, %if.then
  %14 = load ptr, ptr %retval, align 8
  ret ptr %14
}

; Function Attrs: mustprogress uwtable
define linkonce_odr hidden noundef i32 @_ZN6google8protobuf8internal8ReadSizeEPPKc(ptr noundef %pp) #4 comdat {
entry:
  %retval = alloca i32, align 4
  %pp.addr = alloca ptr, align 8
  %p = alloca ptr, align 8
  %res = alloca i32, align 4
  %x = alloca %"struct.std::pair.9", align 8
  store ptr %pp, ptr %pp.addr, align 8
  %0 = load ptr, ptr %pp.addr, align 8
  %1 = load ptr, ptr %0, align 8
  store ptr %1, ptr %p, align 8
  %2 = load ptr, ptr %p, align 8
  %arrayidx = getelementptr inbounds i8, ptr %2, i64 0
  %3 = load i8, ptr %arrayidx, align 1
  %conv = zext i8 %3 to i32
  store i32 %conv, ptr %res, align 4
  %4 = load i32, ptr %res, align 4
  %cmp = icmp ult i32 %4, 128
  br i1 %cmp, label %if.then, label %if.end

if.then:                                          ; preds = %entry
  %5 = load ptr, ptr %p, align 8
  %add.ptr = getelementptr inbounds i8, ptr %5, i64 1
  %6 = load ptr, ptr %pp.addr, align 8
  store ptr %add.ptr, ptr %6, align 8
  %7 = load i32, ptr %res, align 4
  store i32 %7, ptr %retval, align 4
  br label %return

if.end:                                           ; preds = %entry
  %8 = load ptr, ptr %p, align 8
  %9 = load i32, ptr %res, align 4
  %call = call { ptr, i32 } @_ZN6google8protobuf8internal16ReadSizeFallbackEPKcj(ptr noundef %8, i32 noundef %9)
  %10 = getelementptr inbounds { ptr, i32 }, ptr %x, i32 0, i32 0
  %11 = extractvalue { ptr, i32 } %call, 0
  store ptr %11, ptr %10, align 8
  %12 = getelementptr inbounds { ptr, i32 }, ptr %x, i32 0, i32 1
  %13 = extractvalue { ptr, i32 } %call, 1
  store i32 %13, ptr %12, align 8
  %first = getelementptr inbounds %"struct.std::pair.9", ptr %x, i32 0, i32 0
  %14 = load ptr, ptr %first, align 8
  %15 = load ptr, ptr %pp.addr, align 8
  store ptr %14, ptr %15, align 8
  %second = getelementptr inbounds %"struct.std::pair.9", ptr %x, i32 0, i32 1
  %16 = load i32, ptr %second, align 8
  store i32 %16, ptr %retval, align 4
  br label %return

return:                                           ; preds = %if.end, %if.then
  %17 = load i32, ptr %retval, align 4
  ret i32 %17
}

; Function Attrs: mustprogress uwtable
define noundef ptr @_ZN6google8protobuf8internal24InlineGreedyStringParserEPNSt7__cxx1112basic_stringIcSt11char_traitsIcESaIcEEEPKcPNS1_12ParseContextE(ptr noundef %s, ptr noundef %ptr, ptr noundef %ctx) #4 {
entry:
  %retval = alloca ptr, align 8
  %s.addr = alloca ptr, align 8
  %ptr.addr = alloca ptr, align 8
  %ctx.addr = alloca ptr, align 8
  %size = alloca i32, align 4
  store ptr %s, ptr %s.addr, align 8
  store ptr %ptr, ptr %ptr.addr, align 8
  store ptr %ctx, ptr %ctx.addr, align 8
  %call = call noundef i32 @_ZN6google8protobuf8internal8ReadSizeEPPKc(ptr noundef %ptr.addr)
  store i32 %call, ptr %size, align 4
  %0 = load ptr, ptr %ptr.addr, align 8
  %tobool = icmp ne ptr %0, null
  br i1 %tobool, label %if.end, label %if.then

if.then:                                          ; preds = %entry
  store ptr null, ptr %retval, align 8
  br label %return

if.end:                                           ; preds = %entry
  %1 = load ptr, ptr %ctx.addr, align 8
  %2 = load ptr, ptr %ptr.addr, align 8
  %3 = load i32, ptr %size, align 4
  %4 = load ptr, ptr %s.addr, align 8
  %call1 = call noundef ptr @_ZN6google8protobuf8internal18EpsCopyInputStream10ReadStringEPKciPNSt7__cxx1112basic_stringIcSt11char_traitsIcESaIcEEE(ptr noundef nonnull align 8 dereferenceable(88) %1, ptr noundef %2, i32 noundef %3, ptr noundef %4)
  store ptr %call1, ptr %retval, align 8
  br label %return

return:                                           ; preds = %if.end, %if.then
  %5 = load ptr, ptr %retval, align 8
  ret ptr %5
}