; Function Attrs: mustprogress uwtable
define noundef ptr @_ZN6google8protobuf8internal24InlineGreedyStringParserEPNSt7__cxx1112basic_stringIcSt11char_traitsIcESaIcEEEPKcPNS1_12ParseContextE(ptr noundef %s, ptr noundef %ptr, ptr noundef %ctx) local_unnamed_addr #4 {
entry:
  %0 = load i8, ptr %ptr, align 1
  %conv.i = zext i8 %0 to i32
  %cmp.i = icmp sgt i8 %0, -1
  br i1 %cmp.i, label %if.then.i, label %for.body.i.i

if.then.i:                                        ; preds = %entry
  %add.ptr.i = getelementptr inbounds nuw i8, ptr %ptr, i64 1
  br label %if.end

for.cond.i.i:                                     ; preds = %for.body.i.i
  %indvars.iv.next.i.i = add nuw nsw i64 %indvars.iv.i.i, 1
  %exitcond.not.i.i = icmp eq i64 %indvars.iv.next.i.i, 4
  br i1 %exitcond.not.i.i, label %for.end.i.i, label %for.body.i.i, !llvm.loop !7

for.body.i.i:                                     ; preds = %entry, %for.cond.i.i
  %indvars.iv.i.i = phi i64 [ %indvars.iv.next.i.i, %for.cond.i.i ], [ 1, %entry ]
  %res.addr.018.i.i = phi i32 [ %add.i.i, %for.cond.i.i ], [ %conv.i, %entry ]
  %arrayidx.i.i = getelementptr inbounds nuw i8, ptr %ptr, i64 %indvars.iv.i.i
  %1 = load i8, ptr %arrayidx.i.i, align 1
  %conv.i.i = zext i8 %1 to i32
  %sub.i.i = add nsw i32 %conv.i.i, -1
  %2 = trunc i64 %indvars.iv.i.i to i32
  %3 = mul i32 %2, 7
  %shl.i.i = shl nsw i32 %sub.i.i, %3
  %add.i.i = add i32 %shl.i.i, %res.addr.018.i.i
  %cmp1.i.i = icmp sgt i8 %1, -1
  br i1 %cmp1.i.i, label %if.then.i.i, label %for.cond.i.i

if.then.i.i:                                      ; preds = %for.body.i.i
  %arrayidx.i.i.le = getelementptr inbounds nuw i8, ptr %ptr, i64 %indvars.iv.i.i
  %add.ptr3.i.i = getelementptr inbounds nuw i8, ptr %arrayidx.i.i.le, i64 1
  br label %if.end

for.end.i.i:                                      ; preds = %for.cond.i.i
  %arrayidx5.i.i = getelementptr inbounds nuw i8, ptr %ptr, i64 4
  %4 = load i8, ptr %arrayidx5.i.i, align 1
  %cmp7.i.i = icmp ugt i8 %4, 7
  br i1 %cmp7.i.i, label %return, label %if.end12.i.i

if.end12.i.i:                                     ; preds = %for.end.i.i
  %conv6.i.i = zext nneg i8 %4 to i32
  %sub13.i.i = shl nuw nsw i32 %conv6.i.i, 28
  %shl14.i.i = add i32 %add.i.i, -268435456
  %add15.i.i = add i32 %shl14.i.i, %sub13.i.i
  %cmp16.i.i = icmp ugt i32 %add15.i.i, 2147483631
  %add.ptr23.i.i = getelementptr inbounds nuw i8, ptr %ptr, i64 5
  br i1 %cmp16.i.i, label %return, label %if.end

if.end:                                           ; preds = %if.then.i, %if.then.i.i, %if.end12.i.i
  %storemerge.i.ph = phi ptr [ %add.ptr23.i.i, %if.end12.i.i ], [ %add.ptr3.i.i, %if.then.i.i ], [ %add.ptr.i, %if.then.i ]
  %retval.0.i.ph = phi i32 [ %add15.i.i, %if.end12.i.i ], [ %add.i.i, %if.then.i.i ], [ %conv.i, %if.then.i ]
  %conv.i1 = sext i32 %retval.0.i.ph to i64
  %buffer_end_.i = getelementptr inbounds nuw i8, ptr %ctx, i64 8
  %5 = load ptr, ptr %buffer_end_.i, align 8
  %add.ptr.i2 = getelementptr inbounds nuw i8, ptr %5, i64 16
  %sub.ptr.lhs.cast.i = ptrtoint ptr %add.ptr.i2 to i64
  %sub.ptr.rhs.cast.i = ptrtoint ptr %storemerge.i.ph to i64
  %sub.ptr.sub.i = sub i64 %sub.ptr.lhs.cast.i, %sub.ptr.rhs.cast.i
  %cmp.not.i = icmp slt i64 %sub.ptr.sub.i, %conv.i1
  br i1 %cmp.not.i, label %if.end.i, label %if.then.i3

if.then.i3:                                       ; preds = %if.end
  tail call void @_ZNSt7__cxx1112basic_stringIcSt11char_traitsIcESaIcEE6resizeEm(ptr noundef nonnull align 8 dereferenceable(32) %s, i64 noundef %conv.i1)
  %call.i = tail call noundef nonnull align 1 dereferenceable(1) ptr @_ZNSt7__cxx1112basic_stringIcSt11char_traitsIcESaIcEEixEm(ptr noundef nonnull align 8 dereferenceable(32) %s, i64 noundef 0)
  tail call void @llvm.memcpy.p0.p0.i64(ptr nonnull align 1 %call.i, ptr nonnull align 1 %storemerge.i.ph, i64 %conv.i1, i1 false)
  %add.ptr4.i = getelementptr inbounds i8, ptr %storemerge.i.ph, i64 %conv.i1
  br label %return

if.end.i:                                         ; preds = %if.end
  %call5.i = tail call noundef ptr @_ZN6google8protobuf8internal18EpsCopyInputStream18ReadStringFallbackEPKciPNSt7__cxx1112basic_stringIcSt11char_traitsIcESaIcEEE(ptr noundef nonnull align 8 dereferenceable(88) %ctx, ptr noundef nonnull %storemerge.i.ph, i32 noundef %retval.0.i.ph, ptr noundef %s)
  br label %return

return:                                           ; preds = %if.end12.i.i, %if.end.i, %if.then.i3, %for.end.i.i
  %retval.0 = phi ptr [ null, %for.end.i.i ], [ %add.ptr4.i, %if.then.i3 ], [ %call5.i, %if.end.i ], [ null, %if.end12.i.i ]
  ret ptr %retval.0
}